target datalayout = "e-m:e-p270:32:32-p271:32:32-p272:64:64-i64:64-i128:128-f80:128-n8:16:32:64-S128"
target triple = "x86_64-pc-linux-gnu"

@.str.4 = private unnamed_addr constant [7 x i8] c"#mtree\00", align 1

; Function Attrs: nounwind uwtable
define internal i32 @mtree_bid(ptr noundef %0, i32 noundef %1) #0 {
  %3 = alloca i32, align 4
  %4 = alloca ptr, align 8
  %5 = alloca i32, align 4
  %6 = alloca ptr, align 8
  %7 = alloca ptr, align 8
  store ptr %0, ptr %4, align 8
  store i32 %1, ptr %5, align 4
  store ptr @.str.4, ptr %6, align 8
  %8 = load ptr, ptr %4, align 8
  %9 = load ptr, ptr %6, align 8
  %10 = call i64 @strlen(ptr noundef %9) #11
  %11 = call ptr @__archive_read_ahead(ptr noundef %8, i64 noundef %10, ptr noundef null)
  store ptr %11, ptr %7, align 8
  %12 = load ptr, ptr %7, align 8
  %13 = icmp eq ptr %12, null
  br i1 %13, label %14, label %15

14:                                               ; preds = %2
  store i32 -1, ptr %3, align 4
  br label %30

15:                                               ; preds = %2
  %16 = load ptr, ptr %7, align 8
  %17 = load ptr, ptr %6, align 8
  %18 = load ptr, ptr %6, align 8
  %19 = call i64 @strlen(ptr noundef %18) #11
  %20 = call i32 @memcmp(ptr noundef %16, ptr noundef %17, i64 noundef %19) #11
  %21 = icmp eq i32 %20, 0
  br i1 %21, label %22, label %27

22:                                               ; preds = %15
  %23 = load ptr, ptr %6, align 8
  %24 = call i64 @strlen(ptr noundef %23) #11
  %25 = trunc i64 %24 to i32
  %26 = mul nsw i32 8, %25
  store i32 %26, ptr %3, align 4
  br label %30

27:                                               ; preds = %15
  %28 = load ptr, ptr %4, align 8
  %29 = call i32 @detect_form(ptr noundef %28, ptr noundef null)
  store i32 %29, ptr %3, align 4
  br label %30

30:                                               ; preds = %27, %22, %14
  %31 = load i32, ptr %3, align 4
  ret i32 %31
}