; Function Attrs: nounwind uwtable
define internal range(i32 -1, 49) i32 @mtree_bid(ptr noundef %0, i32 %1) #0 {
  %3 = tail call ptr @__archive_read_ahead(ptr noundef %0, i64 noundef 6, ptr noundef null) #19
  %4 = icmp eq ptr %3, null
  br i1 %4, label %9, label %5

5:                                                ; preds = %2
  %bcmp = tail call i32 @bcmp(ptr noundef nonnull dereferenceable(6) %3, ptr noundef nonnull dereferenceable(6) @.str.4, i64 6)
  %6 = icmp eq i32 %bcmp, 0
  br i1 %6, label %9, label %7

7:                                                ; preds = %5
  %8 = tail call fastcc i32 @detect_form(ptr noundef %0, ptr noundef null)
  br label %9

9:                                                ; preds = %5, %2, %7
  %.0 = phi i32 [ %8, %7 ], [ -1, %2 ], [ 48, %5 ]
  ret i32 %.0
}